(lp0
(dp1
a(dp2
a(dp3
a(dp4
a(dp5
a(dp6
S'age group'
p7
S'teen 12-17'
p8
sa(dp9
g7
S'teen 12-17'
p10
sa(dp11
S'sex or gender'
p12
S'male'
p13
sS'cause of death'
p14
S'Intentional'
p15
sa(dp16
a(dp17
g7
S'teen 12-17'
p18
sg14
S'Accidental'
p19
sa(dp20
g7
S'teen 12-17'
p21
sg12
S'male'
p22
sg14
S'Accidental'
p23
sa(dp24
a(dp25
g7
S'teen 12-17'
p26
sg12
S'male'
p27
sg14
S'Accidental'
p28
sa(dp29
g7
S'child 0-11'
p30
sg14
S'Accidental'
p31
sa(dp32
a(dp33
a(dp34
g14
S'Intentional'
p35
sa(dp36
g7
S'adult 18-64'
p37
sa(dp38
g7
S'adult 18-64'
p39
sa(dp40
g7
S'adult 18-64'
p41
sa(dp42
g7
S'adult 18-64'
p43
sa(dp44
a(dp45
a(dp46
a(dp47
a(dp48
S'religion'
p49
S'Christianity'
p50
sg12
S'female'
p51
sg7
S'child 0-11'
p52
sa(dp53
a(dp54
a(dp55
a(dp56
a(dp57
a(dp58
a(dp59
g12
S'male'
p60
sg14
S'Intentional'
p61
sa(dp62
a(dp63
g7
S'teen 12-17'
p64
sg12
S'male'
p65
sg14
S'Intentional'
p66
sa(dp67
g7
S'teen 12-17'
p68
sa(dp69
g7
S'teen 12-17'
p70
sa(dp71
a(dp72
a(dp73
a(dp74
a(dp75
g7
S'teen 12-17'
p76
sa(dp77
a(dp78
g12
S'male'
p79
sg14
S'Accidental'
p80
sa(dp81
a(dp82
a(dp83
a(dp84
g12
S'male'
p85
sa(dp86
a(dp87
g7
S'adult 18-64'
p88
sa(dp89
a(dp90
g7
S'adult 18-64'
p91
sg14
S'Accidental'
p92
sa(dp93
a(dp94
g7
S'adult 18-64'
p95
sa(dp96
g7
S'teen 12-17'
p97
sg14
S'Accidental'
p98
sa(dp99
g7
S'teen 12-17'
p100
sg14
S'Intentional'
p101
sa(dp102
g7
S'teen 12-17'
p103
sa(dp104
g12
S'female'
p105
sg14
S'Intentional'
p106
sa(dp107
g7
S'child 0-11'
p108
sa(dp109
g7
S'child 0-11'
p110
sa(dp111
g7
S'adult 18-64'
p112
sa(dp113
g12
S'female'
p114
sa(dp115
a(dp116
g7
S'child 0-11'
p117
sa(dp118
a(dp119
a(dp120
a(dp121
a(dp122
a(dp123
a(dp124
g14
S'Suicide'
p125
sa(dp126
a(dp127
g7
S'adult 18-64'
p128
sg12
S'male'
p129
sg14
S'Suicide'
p130
sa(dp131
g12
S'male'
p132
sa(dp133
a(dp134
g7
S'adult 18-64'
p135
sa(dp136
a(dp137
g14
S'Intentional'
p138
sa(dp139
g12
S'male'
p140
sg14
S'Suicide'
p141
sa(dp142
a(dp143
g7
S'adult 18-64'
p144
sa(dp145
a(dp146
a(dp147
g12
S'male'
p148
sg14
S'Suicide'
p149
sa(dp150
a(dp151
g7
S'adult 18-64'
p152
sa(dp153
a(dp154
a(dp155
g7
S'adult 18-64'
p156
sa(dp157
a(dp158
a(dp159
g14
S'Intentional'
p160
sa(dp161
g14
S'Intentional'
p162
sa(dp163
a(dp164
a(dp165
a(dp166
a(dp167
a(dp168
a(dp169
a(dp170
a(dp171
a(dp172
a(dp173
g7
S'child 0-11'
p174
sa(dp175
a(dp176
a(dp177
a(dp178
g7
S'child 0-11'
p179
sa(dp180
g7
S'child 0-11'
p181
sg14
S'Intentional'
p182
sa(dp183
g7
S'adult 18-64'
p184
sa(dp185
a(dp186
g12
S'male'
p187
sg14
S'Intentional'
p188
sa(dp189
a(dp190
g7
S'adult 18-64'
p191
sg14
S'Intentional'
p192
sa(dp193
g7
S'adult 18-64'
p194
sa(dp195
g12
S'male'
p196
sa(dp197
a(dp198
a(dp199
a(dp200
a(dp201
a(dp202
a(dp203
g14
S'Intentional'
p204
sa(dp205
a(dp206
a(dp207
a(dp208
a(dp209
a(dp210
a(dp211
a(dp212
g7
S'adult 18-64'
p213
sa(dp214
g7
S'adult 18-64'
p215
sa(dp216
a(dp217
a(dp218
g12
S'female'
p219
sg14
S'Intentional'
p220
sa(dp221
g7
S'adult 18-64'
p222
sa(dp223
a(dp224
a(dp225
g7
S'child 0-11'
p226
sg12
S'female'
p227
sa(dp228
g12
S'male'
p229
sa(dp230
g14
S'Intentional'
p231
sa(dp232
a(dp233
a(dp234
a(dp235
a(dp236
a(dp237
a(dp238
g7
S'child 0-11'
p239
sa(dp240
a(dp241
g14
S'Accidental'
p242
sa(dp243
a(dp244
a(dp245
a(dp246
a(dp247
g7
S'adult 18-64'
p248
sg14
S'Intentional'
p249
sa(dp250
g14
S'Intentional'
p251
sa(dp252
g7
S'adult 18-64'
p253
sa(dp254
g7
S'child 0-11'
p255
sg14
S'Intentional'
p256
sa(dp257
a(dp258
g7
S'adult 18-64'
p259
sg14
S'Intentional'
p260
sa(dp261
a(dp262
S'occupation'
p263
S'sports player'
p264
sa(dp265
g14
S'Intentional'
p266
sa(dp267
g14
S'Intentional'
p268
sa(dp269
a(dp270
a(dp271
g7
S'adult 18-64'
p272
sg12
S'male'
p273
sg14
S'Suicide'
p274
sa(dp275
a(dp276
a(dp277
g7
S'teen 12-17'
p278
sg14
S'Accidental'
p279
sa(dp280
g7
S'adult 18-64'
p281
sg14
S'Intentional'
p282
sa(dp283
g7
S'adult 18-64'
p284
sa(dp285
g7
S'teen 12-17'
p286
sa(dp287
g14
S'Accidental'
p288
sa(dp289
a(dp290
g12
S'male'
p291
sg14
S'Intentional'
p292
sa(dp293
a(dp294
g7
S'child 0-11'
p295
sa(dp296
g7
S'adult 18-64'
p297
sg14
S'Suicide'
p298
sa(dp299
a(dp300
a(dp301
g7
S'adult 18-64'
p302
sa(dp303
a(dp304
a(dp305
g7
S'adult 18-64'
p306
sg12
S'male'
p307
sa(dp308
g12
S'female'
p309
sg14
S'Accidental'
p310
sa(dp311
g12
S'female'
p312
sg14
S'Accidental'
p313
sa(dp314
a(dp315
g14
S'Intentional'
p316
sa(dp317
g7
S'teen 12-17'
p318
sg14
S'Intentional'
p319
sa(dp320
a(dp321
a(dp322
a(dp323
g7
S'adult 18-64'
p324
sg14
S'Intentional'
p325
sa(dp326
g7
S'teen 12-17'
p327
sg12
S'male'
p328
sg14
S'Intentional'
p329
sa(dp330
g7
S'adult 18-64'
p331
sg12
S'male'
p332
sg14
S'Intentional'
p333
sa(dp334
a(dp335
a(dp336
a(dp337
g14
S'Intentional'
p338
sa(dp339
g14
S'Suicide'
p340
sa(dp341
a(dp342
a(dp343
a(dp344
g12
S'male'
p345
sa(dp346
a(dp347
a(dp348
g12
S'male'
p349
sg14
S'Intentional'
p350
sa(dp351
a(dp352
a(dp353
a(dp354
a(dp355
g14
S'Intentional'
p356
sa(dp357
a(dp358
g12
S'female'
p359
sg14
S'Intentional'
p360
sa(dp361
a(dp362
g14
S'Intentional'
p363
sa(dp364
g7
S'adult 18-64'
p365
sg12
S'male'
p366
sa(dp367
a(dp368
g7
S'teen 12-17'
p369
sg14
S'Accidental'
p370
sa(dp371
a(dp372
a(dp373
a(dp374
g7
S'adult 18-64'
p375
sa(dp376
a(dp377
g7
S'adult 18-64'
p378
sg12
S'female'
p379
sg14
S'Intentional'
p380
sa(dp381
g12
S'male'
p382
sg14
S'Accidental'
p383
sa(dp384
a(dp385
g14
S'Intentional'
p386
sa(dp387
g14
S'Intentional'
p388
sa(dp389
g14
S'Intentional'
p390
sa(dp391
g7
S'teen 12-17'
p392
sg14
S'Intentional'
p393
sa(dp394
S'ethnic group'
p395
S'African American/Black'
p396
sa(dp397
g395
S'African American/Black'
p398
sa(dp399
a(dp400
a(dp401
g14
S'Intentional'
p402
sa(dp403
a(dp404
g14
S'Intentional'
p405
sa(dp406
g7
S'adult 18-64'
p407
sa(dp408
a(dp409
a(dp410
g14
S'Intentional'
p411
sa(dp412
a(dp413
g7
S'adult 18-64'
p414
sa(dp415
g7
S'adult 18-64'
p416
sa(dp417
g7
S'adult 18-64'
p418
sa(dp419
g7
S'adult 18-64'
p420
sa(dp421
a(dp422
a(dp423
a(dp424
g14
S'Intentional'
p425
sa(dp426
g12
S'female'
p427
sg14
S'Accidental'
p428
sa(dp429
g7
S'teen 12-17'
p430
sa(dp431
g14
S'Accidental'
p432
sa(dp433
g14
S'Intentional'
p434
sa(dp435
g14
S'Intentional'
p436
sa(dp437
a(dp438
g7
S'adult 18-64'
p439
sa(dp440
g12
S'male'
p441
sg14
S'Accidental'
p442
sa(dp443
a(dp444
a(dp445
g7
S'adult 18-64'
p446
sg14
S'Intentional'
p447
sa(dp448
a(dp449
g7
S'teen 12-17'
p450
sa(dp451
g7
S'child 0-11'
p452
sa(dp453
a(dp454
a(dp455
a(dp456
a(dp457
a(dp458
a(dp459
a(dp460
g12
S'male'
p461
sa(dp462
a(dp463
a(dp464
a(dp465
a(dp466
a(dp467
a(dp468
a(dp469
a(dp470
g7
S'adult 18-64'
p471
sg12
S'female'
p472
sa(dp473
g14
S'Accidental'
p474
sa(dp475
a(dp476
a(dp477
a(dp478
a(dp479
a(dp480
a(dp481
g12
S'male'
p482
sg14
S'Intentional'
p483
sa(dp484
g14
S'Intentional'
p485
sa(dp486
a(dp487
g12
S'male'
p488
sa(dp489
g12
S'female'
p490
sg14
S'Accidental'
p491
sa(dp492
a(dp493
a(dp494
a(dp495
g14
S'Accidental'
p496
sa(dp497
a(dp498
a(dp499
a(dp500
g14
S'Accidental'
p501
sa(dp502
g12
S'male'
p503
sg14
S'Intentional'
p504
sa(dp505
g7
S'teen 12-17'
p506
sg14
S'Intentional'
p507
sa(dp508
g14
S'Intentional'
p509
sa(dp510
a(dp511
a(dp512
a(dp513
a(dp514
g49
S'Christianity'
p515
sa(dp516
g7
S'adult 18-64'
p517
sa(dp518
g7
S'adult 18-64'
p519
sa(dp520
a(dp521
a(dp522
g7
S'adult 18-64'
p523
sa(dp524
a(dp525
a(dp526
g7
S'adult 18-64'
p527
sa(dp528
a(dp529
a(dp530
g7
S'adult 18-64'
p531
sg14
S'Intentional'
p532
sg263
S'sports player'
p533
sa(dp534
a(dp535
g7
S'adult 18-64'
p536
sg14
S'Intentional'
p537
sa(dp538
g7
S'adult 18-64'
p539
sg12
S'male'
p540
sg14
S'Intentional'
p541
sa(dp542
g12
S'male'
p543
sg14
S'Accidental'
p544
sa(dp545
a(dp546
g7
S'adult 18-64'
p547
sg14
S'Intentional'
p548
sa(dp549
g7
S'adult 18-64'
p550
sa(dp551
g7
S'adult 18-64'
p552
sa(dp553
a(dp554
g12
S'male'
p555
sa(dp556
a(dp557
g7
S'adult 18-64'
p558
sa(dp559
g7
S'teen 12-17'
p560
sa(dp561
g7
S'adult 18-64'
p562
sa(dp563
g7
S'adult 18-64'
p564
sg14
S'Accidental'
p565
sa(dp566
a(dp567
g7
S'adult 18-64'
p568
sa(dp569
g7
S'adult 18-64'
p570
sa(dp571
g7
S'adult 18-64'
p572
sa(dp573
g7
S'adult 18-64'
p574
sa(dp575
g14
S'Intentional'
p576
sa(dp577
a(dp578
g14
S'Intentional'
p579
sa(dp580
a(dp581
g14
S'Intentional'
p582
sa(dp583
a(dp584
a(dp585
g14
S'Accidental'
p586
sa(dp587
g14
S'Intentional'
p588
sa(dp589
a(dp590
a(dp591
a(dp592
g7
S'child 0-11'
p593
sg12
S'male'
p594
sg14
S'Suicide'
p595
sa(dp596
a(dp597
a(dp598
g12
S'female'
p599
sa(dp600
a(dp601
a(dp602
a(dp603
a(dp604
a(dp605
g7
S'adult 18-64'
p606
sa(dp607
a(dp608
a(dp609
g7
S'adult 18-64'
p610
sa(dp611
g12
S'female'
p612
sa(dp613
g12
S'female'
p614
sg14
S'Suicide'
p615
sa(dp616
g7
S'teen 12-17'
p617
sg14
S'Intentional'
p618
sg263
S'sports player'
p619
sa(dp620
g7
S'teen 12-17'
p621
sg14
S'Intentional'
p622
sa(dp623
g7
S'teen 12-17'
p624
sg14
S'Intentional'
p625
sa(dp626
a(dp627
g7
S'teen 12-17'
p628
sg14
S'Accidental'
p629
sa(dp630
g7
S'adult 18-64'
p631
sa(dp632
a(dp633
a(dp634
g14
S'Accidental'
p635
sa(dp636
g7
S'child 0-11'
p637
sg12
S'male'
p638
sg14
S'Suicide'
p639
sa(dp640
g7
S'child 0-11'
p641
sg14
S'Intentional'
p642
sa(dp643
g7
S'teen 12-17'
p644
sa(dp645
a(dp646
g12
S'male'
p647
sa(dp648
a(dp649
a(dp650
g49
S'Christianity'
p651
sa(dp652
g12
S'male'
p653
sg14
S'Accidental'
p654
sa(dp655
g7
S'adult 18-64'
p656
sg12
S'male'
p657
sg14
S'Intentional'
p658
sa(dp659
g7
S'child 0-11'
p660
sg12
S'female'
p661
sa(dp662
a(dp663
g12
S'female'
p664
sg14
S'Intentional'
p665
sa(dp666
a(dp667
a(dp668
a(dp669
g12
S'male'
p670
sg14
S'Intentional'
p671
sa(dp672
a(dp673
g14
S'Accidental'
p674
sa(dp675
a(dp676
a(dp677
a(dp678
a(dp679
a(dp680
a(dp681
a(dp682
g12
S'male'
p683
sa(dp684
a(dp685
g7
S'teen 12-17'
p686
sa(dp687
g7
S'adult 18-64'
p688
sa(dp689
a(dp690
a(dp691
g12
S'male'
p692
sg14
S'Intentional'
p693
sa(dp694
a(dp695
a(dp696
a(dp697
a(dp698
g7
S'child 0-11'
p699
sa(dp700
g14
S'Intentional'
p701
sa(dp702
g14
S'Intentional'
p703
sa(dp704
g7
S'child 0-11'
p705
sg12
S'male'
p706
sa(dp707
a(dp708
a(dp709
g12
S'male'
p710
sg14
S'Intentional'
p711
sa(dp712
g14
S'Intentional'
p713
sa(dp714
a(dp715
g12
S'male'
p716
sa(dp717
g12
S'male'
p718
sg14
S'Suicide'
p719
sa(dp720
a(dp721
g7
S'child 0-11'
p722
sa(dp723
a(dp724
a(dp725
a(dp726
g7
S'teen 12-17'
p727
sa(dp728
g14
S'Intentional'
p729
sa(dp730
g7
S'adult 18-64'
p731
sg14
S'Intentional'
p732
sa(dp733
g7
S'adult 18-64'
p734
sg14
S'Intentional'
p735
sa(dp736
g7
S'adult 18-64'
p737
sg14
S'Intentional'
p738
sa(dp739
a(dp740
a(dp741
a(dp742
a(dp743
a(dp744
g7
S'child 0-11'
p745
sg14
S'Intentional'
p746
sa(dp747
g7
S'adult 18-64'
p748
sg14
S'Suicide'
p749
sa(dp750
a(dp751
a(dp752
a(dp753
g12
S'male'
p754
sg14
S'Intentional'
p755
sa(dp756
g7
S'adult 18-64'
p757
sg14
S'Intentional'
p758
sa(dp759
g7
S'adult 18-64'
p760
sg14
S'Intentional'
p761
sa(dp762
a(dp763
g7
S'adult 18-64'
p764
sa(dp765
g7
S'adult 18-64'
p766
sg14
S'Intentional'
p767
sa(dp768
g7
S'adult 18-64'
p769
sg14
S'Intentional'
p770
sa(dp771
a(dp772
g14
S'Intentional'
p773
sa(dp774
a(dp775
g7
S'adult 18-64'
p776
sg12
S'male'
p777
sg14
S'Intentional'
p778
sa(dp779
g7
S'adult 18-64'
p780
sg14
S'Intentional'
p781
sa(dp782
g7
S'adult 18-64'
p783
sa(dp784
g14
S'Intentional'
p785
sa(dp786
g7
S'adult 18-64'
p787
sa(dp788
g7
S'adult 18-64'
p789
sa(dp790
g14
S'Intentional'
p791
sa(dp792
a(dp793
a(dp794
a(dp795
g7
S'adult 18-64'
p796
sg14
S'Intentional'
p797
sa(dp798
a(dp799
a(dp800
a(dp801
a(dp802
a(dp803
g12
S'female'
p804
sa(dp805
g14
S'Intentional'
p806
sa(dp807
g14
S'Intentional'
p808
sa(dp809
g7
S'senior 65+'
p810
sa(dp811
a(dp812
a(dp813
a(dp814
a(dp815
a(dp816
a(dp817
a(dp818
a(dp819
a(dp820
a(dp821
a(dp822
g7
S'adult 18-64'
p823
sa(dp824
a(dp825
a(dp826
g7
S'adult 18-64'
p827
sg14
S'Intentional'
p828
sa(dp829
a(dp830
g7
S'adult 18-64'
p831
sa(dp832
g7
S'adult 18-64'
p833
sa(dp834
g7
S'adult 18-64'
p835
sg14
S'Intentional'
p836
sa(dp837
a(dp838
a(dp839
a(dp840
g7
S'adult 18-64'
p841
sa(dp842
g12
S'female'
p843
sg14
S'Intentional'
p844
sa(dp845
a(dp846
a(dp847
g14
S'Intentional'
p848
sa(dp849
a(dp850
g12
S'male'
p851
sa(dp852
a(dp853
a(dp854
g7
S'adult 18-64'
p855
sg14
S'Intentional'
p856
sa(dp857
g7
S'adult 18-64'
p858
sg14
S'Intentional'
p859
sa(dp860
g7
S'adult 18-64'
p861
sg12
S'male'
p862
sg14
S'Intentional'
p863
sa(dp864
a(dp865
a(dp866
a(dp867
a(dp868
a(dp869
g7
S'adult 18-64'
p870
sg14
S'Intentional'
p871
sa(dp872
g14
S'Intentional'
p873
sa(dp874
a(dp875
g7
S'adult 18-64'
p876
sg12
S'male'
p877
sg14
S'Intentional'
p878
sa(dp879
g7
S'adult 18-64'
p880
sg12
S'male'
p881
sa(dp882
g7
S'adult 18-64'
p883
sa(dp884
a(dp885
g7
S'adult 18-64'
p886
sa(dp887
g7
S'adult 18-64'
p888
sa(dp889
g7
S'adult 18-64'
p890
sa(dp891
g7
S'adult 18-64'
p892
sa(dp893
g7
S'adult 18-64'
p894
sa(dp895
g7
S'adult 18-64'
p896
sa(dp897
g7
S'adult 18-64'
p898
sa(dp899
g7
S'adult 18-64'
p900
sa(dp901
a(dp902
g7
S'adult 18-64'
p903
sg14
S'Intentional'
p904
sa(dp905
a(dp906
a(dp907
a(dp908
a(dp909
a(dp910
g12
S'male'
p911
sa(dp912
g7
S'adult 18-64'
p913
sa(dp914
a(dp915
a(dp916
a(dp917
a(dp918
g7
S'adult 18-64'
p919
sa(dp920
a(dp921
a(dp922
a(dp923
a(dp924
g12
S'male'
p925
sg14
S'Intentional'
p926
sa(dp927
g7
S'adult 18-64'
p928
sa(dp929
g14
S'Intentional'
p930
sa(dp931
g7
S'adult 18-64'
p932
sa(dp933
g12
S'female'
p934
sg14
S'Intentional'
p935
sa(dp936
g14
S'Intentional'
p937
sa(dp938
a(dp939
a(dp940
a(dp941
a(dp942
a(dp943
a(dp944
a(dp945
a(dp946
g14
S'Intentional'
p947
sa(dp948
a(dp949
g7
S'teen 12-17'
p950
sg12
S'male'
p951
sg14
S'Intentional'
p952
sa(dp953
a(dp954
g7
S'teen 12-17'
p955
sg12
S'male'
p956
sg14
S'Intentional'
p957
sa(dp958
a(dp959
a(dp960
g12
S'female'
p961
sg14
S'Suicide'
p962
sa(dp963
a(dp964
g7
S'adult 18-64'
p965
sg14
S'Intentional'
p966
sa(dp967
a(dp968
a(dp969
a(dp970
g7
S'teen 12-17'
p971
sg14
S'Intentional'
p972
sa(dp973
g7
S'teen 12-17'
p974
sg14
S'Intentional'
p975
sa(dp976
g7
S'adult 18-64'
p977
sg12
S'male'
p978
sa(dp979
g12
S'female'
p980
sg14
S'Intentional'
p981
sa(dp982
g14
S'Intentional'
p983
sa(dp984
a(dp985
a(dp986
a(dp987
g12
S'male'
p988
sa(dp989
a(dp990
g7
S'adult 18-64'
p991
sa(dp992
g7
S'adult 18-64'
p993
sg12
S'male'
p994
sg14
S'Suicide'
p995
sa(dp996
g14
S'Intentional'
p997
sa(dp998
g14
S'Accidental'
p999
sa(dp1000
a(dp1001
a(dp1002
a(dp1003
a(dp1004
a(dp1005
a(dp1006
g7
S'adult 18-64'
p1007
sa(dp1008
a(dp1009
g49
S'Christianity'
p1010
sg12
S'male'
p1011
sg14
S'Intentional'
p1012
sa(dp1013
g12
S'male'
p1014
sg14
S'Intentional'
p1015
sa(dp1016
a(dp1017
a(dp1018
a(dp1019
g7
S'teen 12-17'
p1020
sg12
S'male'
p1021
sg14
S'Intentional'
p1022
sa(dp1023
g14
S'Intentional'
p1024
sa(dp1025
a(dp1026
a(dp1027
g12
S'male'
p1028
sa(dp1029
g7
S'adult 18-64'
p1030
sg12
S'male'
p1031
sg14
S'Intentional'
p1032
sa(dp1033
g7
S'adult 18-64'
p1034
sg14
S'Intentional'
p1035
sa(dp1036
a(dp1037
g7
S'adult 18-64'
p1038
sg14
S'Intentional'
p1039
sa(dp1040
a(dp1041
g12
S'male'
p1042
sa(dp1043
a(dp1044
a(dp1045
g12
S'male'
p1046
sg14
S'Accidental'
p1047
sa(dp1048
a(dp1049
g14
S'Intentional'
p1050
sa(dp1051
a(dp1052
g14
S'Intentional'
p1053
sa(dp1054
g7
S'adult 18-64'
p1055
sa(dp1056
a(dp1057
a(dp1058
g12
S'female'
p1059
sa(dp1060
a(dp1061
a(dp1062
g12
S'female'
p1063
sa(dp1064
a(dp1065
g7
S'adult 18-64'
p1066
sg14
S'Intentional'
p1067
sa(dp1068
g12
S'male'
p1069
sa(dp1070
a(dp1071
g7
S'adult 18-64'
p1072
sg12
S'male'
p1073
sa(dp1074
g12
S'male'
p1075
sa(dp1076
a(dp1077
a(dp1078
a(dp1079
a(dp1080
g7
S'adult 18-64'
p1081
sg12
S'female'
p1082
sg14
S'Intentional'
p1083
sa(dp1084
g12
S'male'
p1085
sg14
S'Accidental'
p1086
sa(dp1087
g14
S'Accidental'
p1088
sa(dp1089
g14
S'Intentional'
p1090
sa(dp1091
g7
S'adult 18-64'
p1092
sg14
S'Intentional'
p1093
sa(dp1094
a(dp1095
g12
S'male'
p1096
sa(dp1097
g7
S'adult 18-64'
p1098
sg14
S'Intentional'
p1099
sa(dp1100
a(dp1101
g14
S'Intentional'
p1102
sa(dp1103
a(dp1104
a(dp1105
a(dp1106
g7
S'adult 18-64'
p1107
sg12
S'male'
p1108
sa(dp1109
g12
S'male'
p1110
sg14
S'Intentional'
p1111
sa(dp1112
g12
S'male'
p1113
sa(dp1114
g7
S'teen 12-17'
p1115
sg14
S'Intentional'
p1116
sa(dp1117
g7
S'teen 12-17'
p1118
sa(dp1119
g14
S'Accidental'
p1120
sa(dp1121
a(dp1122
g7
S'adult 18-64'
p1123
sg12
S'female'
p1124
sg14
S'Intentional'
p1125
sa(dp1126
g12
S'female'
p1127
sg14
S'Intentional'
p1128
sa(dp1129
g7
S'child 0-11'
p1130
sg14
S'Intentional'
p1131
sa(dp1132
a(dp1133
a(dp1134
a(dp1135
g7
S'adult 18-64'
p1136
sg14
S'Accidental'
p1137
sa(dp1138
g7
S'adult 18-64'
p1139
sg14
S'Intentional'
p1140
sa(dp1141
a(dp1142
a(dp1143
g7
S'adult 18-64'
p1144
sa(dp1145
g7
S'adult 18-64'
p1146
sa(dp1147
g7
S'adult 18-64'
p1148
sa(dp1149
a(dp1150
g7
S'teen 12-17'
p1151
sa(dp1152
g14
S'Suicide'
p1153
sa(dp1154
a(dp1155
a(dp1156
a(dp1157
a(dp1158
a(dp1159
g7
S'teen 12-17'
p1160
sg12
S'male'
p1161
sg14
S'Intentional'
p1162
sa(dp1163
g12
S'male'
p1164
sg14
S'Intentional'
p1165
sa(dp1166
a(dp1167
a(dp1168
g7
S'adult 18-64'
p1169
sg12
S'male'
p1170
sg14
S'Intentional'
p1171
sa(dp1172
a(dp1173
g14
S'Intentional'
p1174
sa(dp1175
g14
S'Intentional'
p1176
sa(dp1177
a(dp1178
a(dp1179
a(dp1180
a(dp1181
a(dp1182
g12
S'male'
p1183
sg14
S'Accidental'
p1184
sg263
S'sports player'
p1185
sa(dp1186
a(dp1187
a(dp1188
g12
S'female'
p1189
sg14
S'Intentional'
p1190
sa(dp1191
a(dp1192
a(dp1193
a(dp1194
a(dp1195
g14
S'Intentional'
p1196
sa(dp1197
g14
S'Intentional'
p1198
sa(dp1199
g12
S'female'
p1200
sa(dp1201
a(dp1202
a(dp1203
a(dp1204
a(dp1205
g7
S'adult 18-64'
p1206
sa(dp1207
a(dp1208
a(dp1209
a(dp1210
g7
S'teen 12-17'
p1211
sg14
S'Intentional'
p1212
sa(dp1213
g14
S'Intentional'
p1214
sg12
S'male'
p1215
sg395
S'African American/Black'
p1216
sa(dp1217
a(dp1218
g14
S'Intentional'
p1219
sa(dp1220
g12
S'male'
p1221
sg14
S'Intentional'
p1222
sa(dp1223
a(dp1224
g14
S'Intentional'
p1225
sa(dp1226
g7
S'adult 18-64'
p1227
sg12
S'male'
p1228
sa(dp1229
g7
S'adult 18-64'
p1230
sg14
S'Intentional'
p1231
sa(dp1232
a(dp1233
g14
S'Intentional'
p1234
sa(dp1235
g7
S'adult 18-64'
p1236
sg12
S'male'
p1237
sg14
S'Suicide'
p1238
sa(dp1239
g7
S'child 0-11'
p1240
sa(dp1241
g7
S'adult 18-64'
p1242
sa(dp1243
g7
S'adult 18-64'
p1244
sg12
S'male'
p1245
sg14
S'Intentional'
p1246
sa(dp1247
g12
S'female'
p1248
sa(dp1249
g7
S'teen 12-17'
p1250
sg14
S'Intentional'
p1251
sa(dp1252
g14
S'Intentional'
p1253
sa(dp1254
g12
S'male'
p1255
sg14
S'Intentional'
p1256
sa(dp1257
g14
S'Intentional'
p1258
sa(dp1259
a(dp1260
a(dp1261
a(dp1262
a(dp1263
a(dp1264
a(dp1265
a(dp1266
g14
S'Intentional'
p1267
sa(dp1268
g7
S'adult 18-64'
p1269
sa(dp1270
a(dp1271
g12
S'male'
p1272
sa(dp1273
g263
S'sports player'
p1274
sa(dp1275
a(dp1276
a(dp1277
g263
S'sports player'
p1278
sa(dp1279
a(dp1280
a(dp1281
g7
S'teen 12-17'
p1282
sa(dp1283
g7
S'teen 12-17'
p1284
sa(dp1285
a(dp1286
g14
S'Intentional'
p1287
sa(dp1288
g12
S'male'
p1289
sa(dp1290
g7
S'adult 18-64'
p1291
sa(dp1292
g7
S'adult 18-64'
p1293
sg12
S'female'
p1294
sg14
S'Intentional'
p1295
sa(dp1296
g7
S'adult 18-64'
p1297
sg12
S'female'
p1298
sg14
S'Intentional'
p1299
sa(dp1300
g12
S'female'
p1301
sa(dp1302
g7
S'adult 18-64'
p1303
sa(dp1304
g7
S'teen 12-17'
p1305
sg12
S'male'
p1306
sa(dp1307
g14
S'Suicide'
p1308
sa(dp1309
g7
S'child 0-11'
p1310
sa(dp1311
g7
S'adult 18-64'
p1312
sg14
S'Intentional'
p1313
sa.